; Function Attrs: null_pointer_is_valid sspstrong uwtable
define internal i32 @dissect_h245_ModeElementType(ptr noundef %0, i32 noundef %1, ptr noundef %2, ptr noundef %3, i32 noundef %4) #1 {
  %6 = getelementptr inbounds nuw i8, ptr %2, i64 16
  %7 = load ptr, ptr %6, align 8
  %8 = getelementptr inbounds nuw i8, ptr %7, i64 432
  %9 = load i32, ptr %8, align 8
  %10 = add i32 %9, 5
  store i32 %10, ptr %8, align 8
  %11 = load ptr, ptr %6, align 8
  tail call void @increment_dissection_depth(ptr noundef %11)
  %12 = load i32, ptr @ett_h245_ModeElementType, align 4
  %13 = tail call i32 @dissect_per_choice(ptr noundef %0, i32 noundef %1, ptr noundef %2, ptr noundef %3, i32 noundef %4, i32 noundef %12, ptr noundef nonnull @ModeElementType_choice, ptr noundef null)
  %14 = load ptr, ptr %6, align 8
  %15 = getelementptr inbounds nuw i8, ptr %14, i64 432
  %16 = load i32, ptr %15, align 8
  %17 = add i32 %16, -5
  store i32 %17, ptr %15, align 8
  %18 = load ptr, ptr %6, align 8
  tail call void @decrement_dissection_depth(ptr noundef %18)
  ret i32 %13
}